target datalayout = "e-m:e-p270:32:32-p271:32:32-p272:64:64-i64:64-i128:128-f80:128-n8:16:32:64-S128"
target triple = "x86_64-pc-linux-gnu"

%struct._zval_struct = type { %union._zend_value, %union.anon, %union.anon.2 }
%union._zend_value = type { i64 }
%union.anon = type { i32 }
%union.anon.2 = type { i32 }
%struct._zend_refcounted_h = type { i32, %union.anon.3 }
%union.anon.3 = type { i32 }
%struct._zend_string = type { %struct._zend_refcounted_h, i64, i64, [1 x i8] }

; Function Attrs: nounwind uwtable
define hidden i32 @dom_characterdata_data_write(ptr noundef %0, ptr noundef %1) #0 {
  %3 = alloca i32, align 4
  %4 = alloca ptr, align 8
  %5 = alloca ptr, align 8
  %6 = alloca ptr, align 8
  %7 = alloca ptr, align 8
  store ptr %0, ptr %4, align 8
  store ptr %1, ptr %5, align 8
  %8 = load ptr, ptr %4, align 8
  %9 = call ptr @dom_object_get_node(ptr noundef %8)
  store ptr %9, ptr %6, align 8
  %10 = load ptr, ptr %6, align 8
  %11 = icmp eq ptr %10, null
  br i1 %11, label %12, label %13

12:                                               ; preds = %2
  call void @php_dom_throw_error(i32 noundef 11, i32 noundef 1)
  store i32 -1, ptr %3, align 4
  br label %25

13:                                               ; preds = %2
  %14 = load ptr, ptr %5, align 8
  %15 = getelementptr inbounds %struct._zval_struct, ptr %14, i32 0, i32 0
  %16 = load ptr, ptr %15, align 8
  store ptr %16, ptr %7, align 8
  %17 = load ptr, ptr %6, align 8
  %18 = load ptr, ptr %7, align 8
  %19 = getelementptr inbounds %struct._zend_string, ptr %18, i32 0, i32 3
  %20 = getelementptr inbounds [1 x i8], ptr %19, i64 0, i64 0
  %21 = load ptr, ptr %7, align 8
  %22 = getelementptr inbounds %struct._zend_string, ptr %21, i32 0, i32 2
  %23 = load i64, ptr %22, align 8
  %24 = trunc i64 %23 to i32
  call void @xmlNodeSetContentLen(ptr noundef %17, ptr noundef %20, i32 noundef %24)
  store i32 0, ptr %3, align 4
  br label %25

25:                                               ; preds = %13, %12
  %26 = load i32, ptr %3, align 4
  ret i32 %26
}