; Function Attrs: nounwind uwtable
define hidden noundef i32 @dom_characterdata_data_write(ptr noundef %0, ptr nocapture noundef readonly %1) local_unnamed_addr #0 {
  %3 = tail call ptr @dom_object_get_node(ptr noundef %0) #6
  %4 = icmp eq ptr %3, null
  br i1 %4, label %5, label %6

5:                                                ; preds = %2
  tail call void @php_dom_throw_error(i32 noundef 11, i32 noundef 1) #6
  br label %12

6:                                                ; preds = %2
  %7 = load ptr, ptr %1, align 8
  %8 = getelementptr inbounds i8, ptr %7, i64 24
  %9 = getelementptr inbounds i8, ptr %7, i64 16
  %10 = load i64, ptr %9, align 8
  %11 = trunc i64 %10 to i32
  tail call void @xmlNodeSetContentLen(ptr noundef nonnull %3, ptr noundef nonnull %8, i32 noundef %11) #6
  br label %12

12:                                               ; preds = %6, %5
  %.0 = phi i32 [ -1, %5 ], [ 0, %6 ]
  ret i32 %.0
}